target datalayout = "e-m:e-p270:32:32-p271:32:32-p272:64:64-i64:64-i128:128-f80:128-n8:16:32:64-S128"
target triple = "x86_64-pc-linux-gnu"

; Function Attrs: mustprogress nounwind uwtable
define noundef double @_Z7ArcTan2dd(double noundef %0, double noundef %1) #0 {
  %3 = alloca double, align 8
  %4 = alloca double, align 8
  %5 = alloca double, align 8
  store double %0, ptr %4, align 8
  store double %1, ptr %5, align 8
  %6 = load double, ptr %4, align 8
  %7 = fcmp oeq double %6, 0.000000e+00
  br i1 %7, label %8, label %12

8:                                                ; preds = %2
  %9 = load double, ptr %5, align 8
  %10 = fcmp oeq double %9, 0.000000e+00
  br i1 %10, label %11, label %12

11:                                               ; preds = %8
  store double 0.000000e+00, ptr %3, align 8
  br label %43

12:                                               ; preds = %8, %2
  %13 = load double, ptr %5, align 8
  %14 = fcmp oeq double %13, 0.000000e+00
  br i1 %14, label %15, label %20

15:                                               ; preds = %12
  %16 = load double, ptr %4, align 8
  %17 = fcmp ogt double %16, 0.000000e+00
  br i1 %17, label %18, label %19

18:                                               ; preds = %15
  store double 0x3FF921FB54442D18, ptr %3, align 8
  br label %43

19:                                               ; preds = %15
  store double 0xBFF921FB54442D18, ptr %3, align 8
  br label %43

20:                                               ; preds = %12
  %21 = load double, ptr %5, align 8
  %22 = fcmp oge double %21, 0.000000e+00
  br i1 %22, label %23, label %28

23:                                               ; preds = %20
  %24 = load double, ptr %4, align 8
  %25 = load double, ptr %5, align 8
  %26 = fdiv double %24, %25
  %27 = call double @atan(double noundef %26) #6
  store double %27, ptr %3, align 8
  br label %43

28:                                               ; preds = %20
  %29 = load double, ptr %4, align 8
  %30 = fcmp oge double %29, 0.000000e+00
  br i1 %30, label %31, label %37

31:                                               ; preds = %28
  %32 = load double, ptr %4, align 8
  %33 = load double, ptr %5, align 8
  %34 = fdiv double %32, %33
  %35 = call double @atan(double noundef %34) #6
  %36 = fadd double %35, 0x400921FB54442D18
  store double %36, ptr %3, align 8
  br label %43

37:                                               ; preds = %28
  %38 = load double, ptr %4, align 8
  %39 = load double, ptr %5, align 8
  %40 = fdiv double %38, %39
  %41 = call double @atan(double noundef %40) #6
  %42 = fsub double %41, 0x400921FB54442D18
  store double %42, ptr %3, align 8
  br label %43

43:                                               ; preds = %37, %31, %23, %19, %18, %11
  %44 = load double, ptr %3, align 8
  ret double %44
}

; Function Attrs: mustprogress nounwind uwtable
define noundef double @_Z5AnglePKd(ptr noundef %0) #0 {
  %2 = alloca double, align 8
  %3 = alloca ptr, align 8
  store ptr %0, ptr %3, align 8
  %4 = load ptr, ptr %3, align 8
  %5 = getelementptr inbounds double, ptr %4, i64 0
  %6 = load double, ptr %5, align 8
  %7 = load ptr, ptr %3, align 8
  %8 = getelementptr inbounds double, ptr %7, i64 0
  %9 = load double, ptr %8, align 8
  %10 = load ptr, ptr %3, align 8
  %11 = getelementptr inbounds double, ptr %10, i64 1
  %12 = load double, ptr %11, align 8
  %13 = load ptr, ptr %3, align 8
  %14 = getelementptr inbounds double, ptr %13, i64 1
  %15 = load double, ptr %14, align 8
  %16 = fmul double %12, %15
  %17 = call double @llvm.fmuladd.f64(double %6, double %9, double %16)
  %18 = fcmp oeq double %17, 0.000000e+00
  br i1 %18, label %19, label %20

19:                                               ; preds = %1
  store double 0.000000e+00, ptr %2, align 8
  br label %28

20:                                               ; preds = %1
  %21 = load ptr, ptr %3, align 8
  %22 = getelementptr inbounds double, ptr %21, i64 1
  %23 = load double, ptr %22, align 8
  %24 = load ptr, ptr %3, align 8
  %25 = getelementptr inbounds double, ptr %24, i64 0
  %26 = load double, ptr %25, align 8
  %27 = call noundef double @_Z7ArcTan2dd(double noundef %23, double noundef %26)
  store double %27, ptr %2, align 8
  br label %28

28:                                               ; preds = %20, %19
  %29 = load double, ptr %2, align 8
  ret double %29
}

; Function Attrs: mustprogress nounwind uwtable
define void @_Z4SqrtPKdPd(ptr noundef %0, ptr noundef %1) #0 {
  %3 = alloca ptr, align 8
  %4 = alloca ptr, align 8
  %5 = alloca double, align 8
  %6 = alloca double, align 8
  store ptr %0, ptr %3, align 8
  store ptr %1, ptr %4, align 8
  %7 = load ptr, ptr %3, align 8
  %8 = getelementptr inbounds double, ptr %7, i64 0
  %9 = load double, ptr %8, align 8
  %10 = load ptr, ptr %3, align 8
  %11 = getelementptr inbounds double, ptr %10, i64 0
  %12 = load double, ptr %11, align 8
  %13 = load ptr, ptr %3, align 8
  %14 = getelementptr inbounds double, ptr %13, i64 1
  %15 = load double, ptr %14, align 8
  %16 = load ptr, ptr %3, align 8
  %17 = getelementptr inbounds double, ptr %16, i64 1
  %18 = load double, ptr %17, align 8
  %19 = fmul double %15, %18
  %20 = call double @llvm.fmuladd.f64(double %9, double %12, double %19)
  %21 = call double @sqrt(double noundef %20) #6
  %22 = call double @sqrt(double noundef %21) #6
  store double %22, ptr %5, align 8
  %23 = load ptr, ptr %3, align 8
  %24 = call noundef double @_Z5AnglePKd(ptr noundef %23)
  %25 = fmul double %24, 5.000000e-01
  store double %25, ptr %6, align 8
  %26 = load double, ptr %5, align 8
  %27 = load double, ptr %6, align 8
  %28 = call double @cos(double noundef %27) #6
  %29 = fmul double %26, %28
  %30 = load ptr, ptr %4, align 8
  %31 = getelementptr inbounds double, ptr %30, i64 0
  store double %29, ptr %31, align 8
  %32 = load double, ptr %5, align 8
  %33 = load double, ptr %6, align 8
  %34 = call double @sin(double noundef %33) #6
  %35 = fmul double %32, %34
  %36 = load ptr, ptr %4, align 8
  %37 = getelementptr inbounds double, ptr %36, i64 1
  store double %35, ptr %37, align 8
  ret void
}