; Function Attrs: mustprogress nofree nounwind willreturn memory(write, argmem: readwrite) uwtable
define void @_Z4SqrtPKdPd(ptr noundef readonly captures(none) %0, ptr noundef writeonly captures(none) initializes((0, 16)) %1) local_unnamed_addr #4 {
  %3 = load double, ptr %0, align 8
  %4 = getelementptr inbounds nuw i8, ptr %0, i64 8
  %5 = load double, ptr %4, align 8
  %6 = fmul double %5, %5
  %7 = tail call double @llvm.fmuladd.f64(double %3, double %3, double %6)
  %sqrt = tail call double @llvm.sqrt.f64(double %7)
  %8 = tail call double @sqrt(double noundef %sqrt) #12
  %9 = load double, ptr %0, align 8
  %10 = load double, ptr %4, align 8
  %11 = fmul double %10, %10
  %12 = tail call double @llvm.fmuladd.f64(double %9, double %9, double %11)
  %13 = fcmp oeq double %12, 0.000000e+00
  br i1 %13, label %_Z5AnglePKd.exit, label %14

14:                                               ; preds = %2
  %15 = fcmp oeq double %10, 0.000000e+00
  %16 = fcmp oeq double %9, 0.000000e+00
  %or.cond.i.i = and i1 %16, %15
  br i1 %or.cond.i.i, label %_Z5AnglePKd.exit, label %17

17:                                               ; preds = %14
  br i1 %16, label %18, label %20

18:                                               ; preds = %17
  %19 = fcmp ogt double %10, 0.000000e+00
  %..i.i = select i1 %19, double 0x3FF921FB54442D18, double 0xBFF921FB54442D18
  br label %_Z5AnglePKd.exit

20:                                               ; preds = %17
  %21 = fcmp ult double %9, 0.000000e+00
  br i1 %21, label %25, label %22

22:                                               ; preds = %20
  %23 = fdiv double %10, %9
  %24 = tail call double @atan(double noundef %23) #12
  br label %_Z5AnglePKd.exit

25:                                               ; preds = %20
  %26 = fcmp ult double %10, 0.000000e+00
  %27 = fdiv double %10, %9
  %28 = tail call double @atan(double noundef %27) #12
  br i1 %26, label %31, label %29

29:                                               ; preds = %25
  %30 = fadd double %28, 0x400921FB54442D18
  br label %_Z5AnglePKd.exit

31:                                               ; preds = %25
  %32 = fadd double %28, 0xC00921FB54442D18
  br label %_Z5AnglePKd.exit

_Z5AnglePKd.exit:                                 ; preds = %2, %14, %18, %22, %29, %31
  %.0.i = phi double [ 0.000000e+00, %2 ], [ %24, %22 ], [ %30, %29 ], [ %32, %31 ], [ 0.000000e+00, %14 ], [ %..i.i, %18 ]
  %33 = fmul double %.0.i, 5.000000e-01
  %34 = tail call double @cos(double noundef %33) #12
  %35 = fmul double %8, %34
  store double %35, ptr %1, align 8
  %36 = tail call double @sin(double noundef %33) #12
  %37 = fmul double %8, %36
  %38 = getelementptr inbounds nuw i8, ptr %1, i64 8
  store double %37, ptr %38, align 8
  ret void
}